target datalayout = "e-m:e-p270:32:32-p271:32:32-p272:64:64-i64:64-i128:128-f80:128-n8:16:32:64-S128"
target triple = "x86_64-pc-linux-gnu"

%struct.ImGuiSelectionBasicStorage = type { i32, i8, ptr, ptr, i32, %struct.ImGuiStorage }
%struct.ImGuiStorage = type { %struct.ImVector.16 }
%struct.ImVector.16 = type { i32, i32, ptr }

@_ZZL25ShowDemoWindowMultiSelectP19ImGuiDemoWindowDataE15selections_data = internal global [3 x %struct.ImGuiSelectionBasicStorage] zeroinitializer, align 16

; Function Attrs: inlinehint mustprogress nounwind uwtable
define linkonce_odr void @_ZN8ImVectorI16ImGuiStoragePairED2Ev(ptr noundef nonnull align 8 dereferenceable(16) %0) unnamed_addr #7 comdat align 2 personality ptr @__gxx_personality_v0 {
  %2 = alloca ptr, align 8
  store ptr %0, ptr %2, align 8, !tbaa !505
  %3 = load ptr, ptr %2, align 8
  %4 = getelementptr inbounds nuw %struct.ImVector.16, ptr %3, i32 0, i32 2
  %5 = load ptr, ptr %4, align 8, !tbaa !507
  %6 = icmp ne ptr %5, null
  br i1 %6, label %7, label %11

7:                                                ; preds = %1
  %8 = getelementptr inbounds nuw %struct.ImVector.16, ptr %3, i32 0, i32 2
  %9 = load ptr, ptr %8, align 8, !tbaa !507
  invoke void @_ZN5ImGui7MemFreeEPv(ptr noundef %9)
          to label %10 unwind label %12

10:                                               ; preds = %7
  br label %11

11:                                               ; preds = %10, %1
  ret void

12:                                               ; preds = %7
  %13 = landingpad { ptr, i32 }
          catch ptr null
  %14 = extractvalue { ptr, i32 } %13, 0
  call void @__clang_call_terminate(ptr %14) #18
  unreachable
}

; Function Attrs: inlinehint mustprogress nounwind uwtable
define linkonce_odr void @_ZN12ImGuiStorageD2Ev(ptr noundef nonnull align 8 dereferenceable(16) %0) unnamed_addr #7 comdat align 2 {
  %2 = alloca ptr, align 8
  store ptr %0, ptr %2, align 8, !tbaa !503
  %3 = load ptr, ptr %2, align 8
  %4 = getelementptr inbounds nuw %struct.ImGuiStorage, ptr %3, i32 0, i32 0
  call void @_ZN8ImVectorI16ImGuiStoragePairED2Ev(ptr noundef nonnull align 8 dereferenceable(16) %4) #2
  ret void
}

; Function Attrs: inlinehint mustprogress nounwind uwtable
define linkonce_odr void @_ZN26ImGuiSelectionBasicStorageD2Ev(ptr noundef nonnull align 8 dereferenceable(48) %0) unnamed_addr #7 comdat align 2 {
  %2 = alloca ptr, align 8
  store ptr %0, ptr %2, align 8, !tbaa !435
  %3 = load ptr, ptr %2, align 8
  %4 = getelementptr inbounds nuw %struct.ImGuiSelectionBasicStorage, ptr %3, i32 0, i32 5
  call void @_ZN12ImGuiStorageD2Ev(ptr noundef nonnull align 8 dereferenceable(16) %4) #2
  ret void
}

; Function Attrs: uwtable
define internal void @__cxx_global_array_dtor(ptr noundef %0) #14 section ".text.startup" {
  %2 = alloca ptr, align 8
  store ptr %0, ptr %2, align 8, !tbaa !43
  br label %3

3:                                                ; preds = %3, %1
  %4 = phi ptr [ getelementptr inbounds (%struct.ImGuiSelectionBasicStorage, ptr @_ZZL25ShowDemoWindowMultiSelectP19ImGuiDemoWindowDataE15selections_data, i64 3), %1 ], [ %5, %3 ]
  %5 = getelementptr inbounds %struct.ImGuiSelectionBasicStorage, ptr %4, i64 -1
  call void @_ZN26ImGuiSelectionBasicStorageD2Ev(ptr noundef nonnull align 8 dereferenceable(48) %5) #2
  %6 = icmp eq ptr %5, @_ZZL25ShowDemoWindowMultiSelectP19ImGuiDemoWindowDataE15selections_data
  br i1 %6, label %7, label %3

7:                                                ; preds = %3
  ret void
}